; Function Attrs: mustprogress uwtable
define void @_ZN5arrow15ProxyMemoryPoolC2EPNS_10MemoryPoolE(ptr noundef nonnull writeonly align 8 captures(none) dereferenceable(16) initializes((0, 16)) %0, ptr noundef %1) unnamed_addr #4 align 2 personality ptr @__gxx_personality_v0 {
  store ptr getelementptr inbounds nuw inrange(-16, 96) (i8, ptr @_ZTVN5arrow15ProxyMemoryPoolE, i64 16), ptr %0, align 8, !tbaa !10
  %3 = getelementptr inbounds nuw i8, ptr %0, i64 8
  store ptr null, ptr %3, align 8, !tbaa !72
  %4 = invoke noalias noundef nonnull align 64 dereferenceable(128) ptr @_ZnwmSt11align_val_t(i64 noundef 128, i64 noundef 64) #33
          to label %_ZNSt10unique_ptrIN5arrow15ProxyMemoryPool19ProxyMemoryPoolImplESt14default_deleteIS2_EE5resetEPS2_.exit unwind label %_ZNSt10unique_ptrIN5arrow15ProxyMemoryPool19ProxyMemoryPoolImplESt14default_deleteIS2_EED2Ev.exit

_ZNSt10unique_ptrIN5arrow15ProxyMemoryPool19ProxyMemoryPoolImplESt14default_deleteIS2_EE5resetEPS2_.exit: ; preds = %2
  store ptr %1, ptr %4, align 64, !tbaa !75
  %5 = getelementptr inbounds nuw i8, ptr %4, i64 64
  tail call void @llvm.memset.p0.i64(ptr noundef nonnull align 64 dereferenceable(32) %5, i8 0, i64 32, i1 false)
  store ptr %4, ptr %3, align 8, !tbaa !80
  ret void

_ZNSt10unique_ptrIN5arrow15ProxyMemoryPool19ProxyMemoryPoolImplESt14default_deleteIS2_EED2Ev.exit: ; preds = %2
  %6 = landingpad { ptr, i32 }
          cleanup
  store ptr null, ptr %3, align 8, !tbaa !80
  resume { ptr, i32 } %6
}